; Function Attrs: nounwind uwtable
define void @PMIx_Query_release(ptr noundef captures(address_is_null) %0) local_unnamed_addr #6 {
  %.not.i.i = icmp eq ptr %0, null
  br i1 %.not.i.i, label %pmix_bfrops_base_tma_query_release.exit, label %.lr.ph.i.preheader.i

.lr.ph.i.preheader.i:                             ; preds = %1
  %2 = load ptr, ptr %0, align 8, !tbaa !129
  %.not.i.i.i = icmp eq ptr %2, null
  br i1 %.not.i.i.i, label %7, label %.preheader.i.i.i.i

.preheader.i.i.i.i:                               ; preds = %.lr.ph.i.preheader.i
  %3 = load ptr, ptr %2, align 8, !tbaa !12
  %.not101.i.i.i.i = icmp eq ptr %3, null
  br i1 %.not101.i.i.i.i, label %pmix_bfrops_base_tma_argv_free.exit.i.i.i, label %.lr.ph.i.i.i.i

.lr.ph.i.i.i.i:                                   ; preds = %.preheader.i.i.i.i, %.lr.ph.i.i.i.i
  %4 = phi ptr [ %6, %.lr.ph.i.i.i.i ], [ %3, %.preheader.i.i.i.i ]
  %.02.i.i.i.i = phi ptr [ %5, %.lr.ph.i.i.i.i ], [ %2, %.preheader.i.i.i.i ]
  tail call void @free(ptr noundef nonnull %4) #44
  %5 = getelementptr inbounds nuw i8, ptr %.02.i.i.i.i, i64 8
  %6 = load ptr, ptr %5, align 8, !tbaa !12
  %.not10.i.i.i.i = icmp eq ptr %6, null
  br i1 %.not10.i.i.i.i, label %pmix_bfrops_base_tma_argv_free.exit.i.i.i, label %.lr.ph.i.i.i.i, !llvm.loop !19

pmix_bfrops_base_tma_argv_free.exit.i.i.i:        ; preds = %.lr.ph.i.i.i.i, %.preheader.i.i.i.i
  tail call void @free(ptr noundef nonnull %2) #44
  store ptr null, ptr %0, align 8, !tbaa !129
  br label %7

7:                                                ; preds = %pmix_bfrops_base_tma_argv_free.exit.i.i.i, %.lr.ph.i.preheader.i
  %8 = getelementptr inbounds nuw i8, ptr %0, i64 8
  %9 = load ptr, ptr %8, align 8, !tbaa !131
  %.not11.i.i.i = icmp eq ptr %9, null
  br i1 %.not11.i.i.i, label %pmix_bfrops_base_tma_query_destruct.exit.i.i, label %10

10:                                               ; preds = %7
  %11 = getelementptr inbounds nuw i8, ptr %0, i64 16
  %12 = load i64, ptr %11, align 8, !tbaa !132
  %.not2.i.i.i = icmp eq i64 %12, 0
  br i1 %.not2.i.i.i, label %pmix_bfrops_base_tma_info_free.exit.i.i.i, label %.lr.ph.i.i.i

.lr.ph.i.i.i:                                     ; preds = %10, %pmix_bfrops_base_tma_info_destruct.exit.i.i.i
  %.0.i1.i.i.i = phi i64 [ %18, %pmix_bfrops_base_tma_info_destruct.exit.i.i.i ], [ 0, %10 ]
  %13 = getelementptr inbounds nuw %struct.pmix_info, ptr %9, i64 %.0.i1.i.i.i
  %14 = getelementptr i8, ptr %13, i64 512
  %.val.i.i.i.i = load i32, ptr %14, align 8, !tbaa !80
  %15 = and i32 %.val.i.i.i.i, 16
  %.not.i13.i.i.i = icmp eq i32 %15, 0
  br i1 %.not.i13.i.i.i, label %16, label %pmix_bfrops_base_tma_info_destruct.exit.i.i.i

16:                                               ; preds = %.lr.ph.i.i.i
  %17 = getelementptr inbounds nuw i8, ptr %13, i64 520
  tail call fastcc void @pmix_bfrops_base_tma_value_destruct(ptr noundef nonnull %17)
  br label %pmix_bfrops_base_tma_info_destruct.exit.i.i.i

pmix_bfrops_base_tma_info_destruct.exit.i.i.i:    ; preds = %16, %.lr.ph.i.i.i
  %18 = add nuw i64 %.0.i1.i.i.i, 1
  %exitcond.not.i.i.i = icmp eq i64 %18, %12
  br i1 %exitcond.not.i.i.i, label %pmix_bfrops_base_tma_info_free.exit.i.i.i, label %.lr.ph.i.i.i, !llvm.loop !83

pmix_bfrops_base_tma_info_free.exit.i.i.i:        ; preds = %pmix_bfrops_base_tma_info_destruct.exit.i.i.i, %10
  tail call void @free(ptr noundef nonnull %9) #44
  br label %pmix_bfrops_base_tma_query_destruct.exit.i.i

pmix_bfrops_base_tma_query_destruct.exit.i.i:     ; preds = %pmix_bfrops_base_tma_info_free.exit.i.i.i, %7
  tail call void @free(ptr noundef nonnull %0) #44
  br label %pmix_bfrops_base_tma_query_release.exit

pmix_bfrops_base_tma_query_release.exit:          ; preds = %1, %pmix_bfrops_base_tma_query_destruct.exit.i.i
  ret void
}